target datalayout = "e-m:e-p270:32:32-p271:32:32-p272:64:64-i64:64-i128:128-f80:128-n8:16:32:64-S128"
target triple = "x86_64-pc-linux-gnu"

%struct.HashJoinState = type { %struct.JoinState, ptr, ptr, ptr, i32, i32, i32, ptr, ptr, ptr, ptr, ptr, ptr, i32, i8, i8 }
%struct.JoinState = type { %struct.PlanState, i32, i8, ptr }
%struct.PlanState = type { i32, ptr, ptr, ptr, ptr, ptr, ptr, ptr, ptr, ptr, ptr, ptr, ptr, ptr, ptr, ptr, ptr, ptr, i8, ptr, ptr, ptr, ptr, ptr, i8, i8, i8, i8, i8, i8, i8, i8 }
%struct.Plan = type { i32, i32, double, double, double, i32, i8, i8, i8, i32, ptr, ptr, ptr, ptr, ptr, ptr, ptr }
%struct.HashState = type { %struct.PlanState, ptr, ptr, ptr, i32, ptr, ptr, ptr }
%struct.ParallelHashJoinState = type { i64, i64, i32, i32, i32, i32, i64, i32, i64, i64, %struct.LWLock, %struct.Barrier, %struct.Barrier, %struct.Barrier, %struct.pg_atomic_uint32, %struct.SharedFileSet }
%struct.LWLock = type { i16, %struct.pg_atomic_uint32, %struct.proclist_head }
%struct.proclist_head = type { i32, i32 }
%struct.Barrier = type { i8, i32, i32, i32, i32, i8, %struct.ConditionVariable }
%struct.ConditionVariable = type { i8, %struct.proclist_head }
%struct.pg_atomic_uint32 = type { i32 }
%struct.SharedFileSet = type { %struct.FileSet, i8, i32 }
%struct.FileSet = type { i32, i32, i32, [8 x i32] }
%struct.ParallelWorkerContext = type { ptr, ptr }

; Function Attrs: nounwind uwtable
define dso_local void @ExecHashJoinInitializeWorker(ptr noundef %0, ptr noundef %1) #0 {
  %3 = alloca ptr, align 8
  %4 = alloca ptr, align 8
  %5 = alloca ptr, align 8
  %6 = alloca i32, align 4
  %7 = alloca ptr, align 8
  store ptr %0, ptr %3, align 8
  store ptr %1, ptr %4, align 8
  call void @llvm.lifetime.start.p0(i64 8, ptr %5) #8
  call void @llvm.lifetime.start.p0(i64 4, ptr %6) #8
  %8 = load ptr, ptr %3, align 8
  %9 = getelementptr inbounds nuw %struct.HashJoinState, ptr %8, i32 0, i32 0
  %10 = getelementptr inbounds nuw %struct.JoinState, ptr %9, i32 0, i32 0
  %11 = getelementptr inbounds nuw %struct.PlanState, ptr %10, i32 0, i32 1
  %12 = load ptr, ptr %11, align 8
  %13 = getelementptr inbounds nuw %struct.Plan, ptr %12, i32 0, i32 9
  %14 = load i32, ptr %13, align 8
  store i32 %14, ptr %6, align 4
  call void @llvm.lifetime.start.p0(i64 8, ptr %7) #8
  %15 = load ptr, ptr %4, align 8
  %16 = getelementptr inbounds nuw %struct.ParallelWorkerContext, ptr %15, i32 0, i32 1
  %17 = load ptr, ptr %16, align 8
  %18 = load i32, ptr %6, align 4
  %19 = sext i32 %18 to i64
  %20 = call ptr @shm_toc_lookup(ptr noundef %17, i64 noundef %19, i1 noundef zeroext false)
  store ptr %20, ptr %7, align 8
  %21 = load ptr, ptr %7, align 8
  %22 = getelementptr inbounds nuw %struct.ParallelHashJoinState, ptr %21, i32 0, i32 15
  %23 = load ptr, ptr %4, align 8
  %24 = getelementptr inbounds nuw %struct.ParallelWorkerContext, ptr %23, i32 0, i32 0
  %25 = load ptr, ptr %24, align 8
  call void @SharedFileSetAttach(ptr noundef %22, ptr noundef %25)
  %26 = load ptr, ptr %3, align 8
  %27 = getelementptr inbounds nuw %struct.PlanState, ptr %26, i32 0, i32 10
  %28 = load ptr, ptr %27, align 8
  store ptr %28, ptr %5, align 8
  %29 = load ptr, ptr %7, align 8
  %30 = load ptr, ptr %5, align 8
  %31 = getelementptr inbounds nuw %struct.HashState, ptr %30, i32 0, i32 7
  store ptr %29, ptr %31, align 8
  %32 = load ptr, ptr %3, align 8
  %33 = getelementptr inbounds nuw %struct.HashJoinState, ptr %32, i32 0, i32 0
  %34 = getelementptr inbounds nuw %struct.JoinState, ptr %33, i32 0, i32 0
  call void @ExecSetExecProcNode(ptr noundef %34, ptr noundef @ExecParallelHashJoin)
  call void @llvm.lifetime.end.p0(i64 8, ptr %7) #8
  call void @llvm.lifetime.end.p0(i64 4, ptr %6) #8
  call void @llvm.lifetime.end.p0(i64 8, ptr %5) #8
  ret void
}