; Function Attrs: nounwind uwtable
define dso_local void @ExecHashJoinInitializeWorker(ptr noundef %0, ptr noundef readonly captures(none) %1) local_unnamed_addr #0 {
  %3 = getelementptr inbounds nuw i8, ptr %0, i64 8
  %4 = load ptr, ptr %3, align 8
  %5 = getelementptr inbounds nuw i8, ptr %4, i64 40
  %6 = load i32, ptr %5, align 8
  %7 = getelementptr inbounds nuw i8, ptr %1, i64 8
  %8 = load ptr, ptr %7, align 8
  %9 = sext i32 %6 to i64
  %10 = tail call ptr @shm_toc_lookup(ptr noundef %8, i64 noundef %9, i1 noundef zeroext false) #6
  %11 = getelementptr inbounds nuw i8, ptr %10, i64 192
  %12 = load ptr, ptr %1, align 8
  tail call void @SharedFileSetAttach(ptr noundef nonnull %11, ptr noundef %12) #6
  %13 = getelementptr inbounds nuw i8, ptr %0, i64 80
  %14 = load ptr, ptr %13, align 8
  %15 = getelementptr inbounds nuw i8, ptr %14, i64 248
  store ptr %10, ptr %15, align 8
  tail call void @ExecSetExecProcNode(ptr noundef %0, ptr noundef nonnull @ExecParallelHashJoin) #6
  ret void
}